(dp1
S'names'
p2
ccopy_reg
_reconstructor
p3
(ctwisted.plugin
CachedDropin
p4
c__builtin__
object
p5
NtRp6
(dp7
S'moduleName'
p8
S'names.names'
p9
sS'description'
p10
NsS'plugins'
p11
(lp12
g3
(ctwisted.plugin
CachedPlugin
p13
g5
NtRp14
(dp15
S'provided'
p16
(lp17
champer.interfaces
IChatPlugin
p18
actwisted.plugin
IPlugin
p19
asS'dropin'
p20
g6
sS'name'
p21
S'names'
p22
sg10
S'Random Name Generator: !name to generate a random name'
p23
sbasbs.